target datalayout = "e-m:e-p270:32:32-p271:32:32-p272:64:64-i64:64-i128:128-f80:128-n8:16:32:64-S128"
target triple = "x86_64-pc-linux-gnu"

%struct._zval_struct = type { %union._zend_value, %union.anon, %union.anon.2 }
%union._zend_value = type { i64 }
%union.anon = type { i32 }
%union.anon.2 = type { i32 }
%struct._zend_array = type { %struct._zend_refcounted_h, %union.anon.4, i32, %union.anon.6, i32, i32, i32, i32, i64, ptr }
%struct._zend_refcounted_h = type { i32, %union.anon.3 }
%union.anon.3 = type { i32 }
%union.anon.4 = type { i32 }
%union.anon.6 = type { ptr }
%struct._zend_rsrc_list_dtors_entry = type { ptr, ptr, ptr, i32, i32 }

@list_destructors = internal global %struct._zend_array zeroinitializer, align 8

; Function Attrs: nounwind uwtable
define i32 @zend_register_list_destructors_ex(ptr noundef %0, ptr noundef %1, ptr noundef %2, i32 noundef %3) #0 {
  %5 = alloca i32, align 4
  %6 = alloca ptr, align 8
  %7 = alloca ptr, align 8
  %8 = alloca ptr, align 8
  %9 = alloca i32, align 4
  %10 = alloca ptr, align 8
  %11 = alloca %struct._zval_struct, align 8
  store ptr %0, ptr %6, align 8
  store ptr %1, ptr %7, align 8
  store ptr %2, ptr %8, align 8
  store i32 %3, ptr %9, align 4
  %12 = call noalias ptr @malloc(i64 noundef 32) #12
  store ptr %12, ptr %10, align 8
  %13 = load ptr, ptr %6, align 8
  %14 = load ptr, ptr %10, align 8
  %15 = getelementptr inbounds %struct._zend_rsrc_list_dtors_entry, ptr %14, i32 0, i32 0
  store ptr %13, ptr %15, align 8
  %16 = load ptr, ptr %7, align 8
  %17 = load ptr, ptr %10, align 8
  %18 = getelementptr inbounds %struct._zend_rsrc_list_dtors_entry, ptr %17, i32 0, i32 1
  store ptr %16, ptr %18, align 8
  %19 = load i32, ptr %9, align 4
  %20 = load ptr, ptr %10, align 8
  %21 = getelementptr inbounds %struct._zend_rsrc_list_dtors_entry, ptr %20, i32 0, i32 3
  store i32 %19, ptr %21, align 8
  %22 = load i64, ptr getelementptr inbounds (%struct._zend_array, ptr @list_destructors, i32 0, i32 8), align 8
  %23 = trunc i64 %22 to i32
  %24 = load ptr, ptr %10, align 8
  %25 = getelementptr inbounds %struct._zend_rsrc_list_dtors_entry, ptr %24, i32 0, i32 4
  store i32 %23, ptr %25, align 4
  %26 = load ptr, ptr %8, align 8
  %27 = load ptr, ptr %10, align 8
  %28 = getelementptr inbounds %struct._zend_rsrc_list_dtors_entry, ptr %27, i32 0, i32 2
  store ptr %26, ptr %28, align 8
  br label %29

29:                                               ; preds = %4
  %30 = load ptr, ptr %10, align 8
  %31 = getelementptr inbounds %struct._zval_struct, ptr %11, i32 0, i32 0
  store ptr %30, ptr %31, align 8
  %32 = getelementptr inbounds %struct._zval_struct, ptr %11, i32 0, i32 1
  store i32 13, ptr %32, align 8
  br label %33

33:                                               ; preds = %29
  %34 = call ptr @zend_hash_next_index_insert(ptr noundef @list_destructors, ptr noundef %11)
  %35 = icmp eq ptr %34, null
  br i1 %35, label %36, label %38

36:                                               ; preds = %33
  %37 = load ptr, ptr %10, align 8
  call void @free(ptr noundef %37) #11
  store i32 -1, ptr %5, align 4
  br label %42

38:                                               ; preds = %33
  %39 = load i64, ptr getelementptr inbounds (%struct._zend_array, ptr @list_destructors, i32 0, i32 8), align 8
  %40 = sub nsw i64 %39, 1
  %41 = trunc i64 %40 to i32
  store i32 %41, ptr %5, align 4
  br label %42

42:                                               ; preds = %38, %36
  %43 = load i32, ptr %5, align 4
  ret i32 %43
}