; Function Attrs: nounwind uwtable
define i32 @zend_register_list_destructors_ex(ptr noundef %0, ptr noundef %1, ptr noundef %2, i32 noundef %3) local_unnamed_addr #0 {
  %5 = alloca %struct._zval_struct, align 8
  %6 = tail call noalias dereferenceable_or_null(32) ptr @malloc(i64 noundef 32) #15
  store ptr %0, ptr %6, align 8
  %7 = getelementptr inbounds i8, ptr %6, i64 8
  store ptr %1, ptr %7, align 8
  %8 = getelementptr inbounds i8, ptr %6, i64 24
  store i32 %3, ptr %8, align 8
  %9 = load i64, ptr getelementptr inbounds (%struct._zend_array, ptr @list_destructors, i64 0, i32 8), align 8
  %10 = trunc i64 %9 to i32
  %11 = getelementptr inbounds i8, ptr %6, i64 28
  store i32 %10, ptr %11, align 4
  %12 = getelementptr inbounds i8, ptr %6, i64 16
  store ptr %2, ptr %12, align 8
  store ptr %6, ptr %5, align 8
  %13 = getelementptr inbounds i8, ptr %5, i64 8
  store i32 13, ptr %13, align 8
  %14 = call ptr @zend_hash_next_index_insert(ptr noundef nonnull @list_destructors, ptr noundef nonnull %5) #14
  %15 = icmp eq ptr %14, null
  br i1 %15, label %16, label %17

16:                                               ; preds = %4
  call void @free(ptr noundef nonnull %6) #14
  br label %21

17:                                               ; preds = %4
  %18 = load i64, ptr getelementptr inbounds (%struct._zend_array, ptr @list_destructors, i64 0, i32 8), align 8
  %19 = trunc i64 %18 to i32
  %20 = add i32 %19, -1
  br label %21

21:                                               ; preds = %17, %16
  %.0 = phi i32 [ -1, %16 ], [ %20, %17 ]
  ret i32 %.0
}